; Function Attrs: mustprogress uwtable
define noundef range(i64 -1152921504606846976, 1152921504606846976) i64 @_ZNK6casadi10DaeBuilder2nwEv(ptr noundef nonnull align 8 dereferenceable(8) %0) local_unnamed_addr #4 align 2 {
  %2 = tail call noundef ptr @_ZNK6casadi13GenericSharedINS_12SharedObjectENS_20SharedObjectInternalEEptEv(ptr noundef nonnull align 8 dereferenceable(8) %0)
  %3 = tail call noundef nonnull align 8 dereferenceable(24) ptr @_ZNK6casadi18DaeBuilderInternal7indicesENS_8CategoryE(ptr noundef nonnull align 8 dereferenceable(1017) %2, i32 noundef 4)
  %4 = getelementptr inbounds nuw i8, ptr %3, i64 8
  %5 = load ptr, ptr %4, align 8, !tbaa !30
  %6 = load ptr, ptr %3, align 8, !tbaa !33
  %7 = ptrtoint ptr %5 to i64
  %8 = ptrtoint ptr %6 to i64
  %9 = sub i64 %7, %8
  %10 = ashr exact i64 %9, 3
  ret i64 %10
}